; Function Attrs: alwaysinline norecurse nounwind uwtable
define internal void @_ZN8LightGBM18MultiValBinWrapper8HistMoveILb1ELi32ELi32EEEvRKSt6vectorIdNS_6Common18AlignmentAllocatorIdLm32EEEE.omp_outlined(ptr noalias noundef readonly captures(none) %0, ptr noalias readnone captures(none) %1, ptr noundef readonly captures(none) %2, ptr noundef nonnull readonly align 8 captures(none) dereferenceable(8) %3) #5 personality ptr @__gxx_personality_v0 {
  %5 = alloca i32, align 4
  %6 = alloca i32, align 4
  %7 = alloca i32, align 4
  %8 = alloca i32, align 4
  %9 = getelementptr inbounds nuw i8, ptr %2, i64 24
  %10 = getelementptr inbounds nuw i8, ptr %2, i64 32
  %11 = load ptr, ptr %10, align 8, !tbaa !37
  %12 = load ptr, ptr %9, align 8, !tbaa !38
  %13 = ptrtoint ptr %11 to i64
  %14 = ptrtoint ptr %12 to i64
  %15 = sub i64 %13, %14
  %16 = lshr exact i64 %15, 2
  %17 = trunc i64 %16 to i32
  %18 = icmp sgt i32 %17, 0
  br i1 %18, label %19, label %53

19:                                               ; preds = %4
  %20 = add nsw i32 %17, -1
  call void @llvm.lifetime.start.p0(i64 4, ptr nonnull %5) #6
  store i32 0, ptr %5, align 4, !tbaa !39
  call void @llvm.lifetime.start.p0(i64 4, ptr nonnull %6) #6
  store i32 %20, ptr %6, align 4, !tbaa !39
  call void @llvm.lifetime.start.p0(i64 4, ptr nonnull %7) #6
  store i32 1, ptr %7, align 4, !tbaa !39
  call void @llvm.lifetime.start.p0(i64 4, ptr nonnull %8) #6
  store i32 0, ptr %8, align 4, !tbaa !39
  %21 = load i32, ptr %0, align 4, !tbaa !39
  call void @__kmpc_for_static_init_4(ptr nonnull @1, i32 %21, i32 34, ptr nonnull %8, ptr nonnull %5, ptr nonnull %6, ptr nonnull %7, i32 1, i32 1)
  %22 = load i32, ptr %6, align 4, !tbaa !39
  %23 = call i32 @llvm.smin.i32(i32 %22, i32 %20)
  store i32 %23, ptr %6, align 4, !tbaa !39
  %24 = load i32, ptr %5, align 4, !tbaa !39
  %.not14 = icmp sgt i32 %24, %23
  br i1 %.not14, label %._crit_edge, label %.lr.ph

.lr.ph:                                           ; preds = %19
  %25 = getelementptr inbounds nuw i8, ptr %2, i64 72
  %26 = getelementptr inbounds nuw i8, ptr %2, i64 152
  %27 = getelementptr inbounds nuw i8, ptr %2, i64 48
  %28 = sext i32 %24 to i64
  br label %29

29:                                               ; preds = %.lr.ph, %_ZSt6copy_nIPKljPlET1_T_T0_S3_.exit
  %30 = phi i32 [ %23, %.lr.ph ], [ %51, %_ZSt6copy_nIPKljPlET1_T_T0_S3_.exit ]
  %indvars.iv = phi i64 [ %28, %.lr.ph ], [ %indvars.iv.next, %_ZSt6copy_nIPKljPlET1_T_T0_S3_.exit ]
  %31 = load ptr, ptr %25, align 8, !tbaa !38
  %32 = getelementptr inbounds nuw i32, ptr %31, i64 %indvars.iv
  %33 = load i32, ptr %32, align 4, !tbaa !39
  %34 = icmp ult i32 %33, 2
  br i1 %34, label %_ZSt6copy_nIPKljPlET1_T_T0_S3_.exit, label %_ZSt8__copy_nIPKljPlET1_T_T0_S3_St26random_access_iterator_tag.exit.i

_ZSt8__copy_nIPKljPlET1_T_T0_S3_St26random_access_iterator_tag.exit.i: ; preds = %29
  %35 = lshr i32 %33, 1
  %36 = load ptr, ptr %26, align 8, !tbaa !40
  %37 = load ptr, ptr %27, align 8, !tbaa !38
  %38 = getelementptr inbounds nuw i32, ptr %37, i64 %indvars.iv
  %39 = load i32, ptr %38, align 4, !tbaa !39
  %40 = lshr i32 %39, 1
  %41 = zext nneg i32 %40 to i64
  %42 = getelementptr inbounds nuw i64, ptr %36, i64 %41
  %43 = load ptr, ptr %3, align 8, !tbaa !55
  %44 = load ptr, ptr %9, align 8, !tbaa !38
  %45 = getelementptr inbounds nuw i32, ptr %44, i64 %indvars.iv
  %46 = load i32, ptr %45, align 4, !tbaa !39
  %47 = lshr i32 %46, 1
  %48 = zext nneg i32 %47 to i64
  %49 = getelementptr inbounds nuw i64, ptr %43, i64 %48
  %50 = zext nneg i32 %35 to i64
  %.idx.i.i = shl nuw nsw i64 %50, 3
  call void @llvm.memmove.p0.p0.i64(ptr align 8 %42, ptr align 8 %49, i64 %.idx.i.i, i1 false)
  %.pre = load i32, ptr %6, align 4, !tbaa !39
  br label %_ZSt6copy_nIPKljPlET1_T_T0_S3_.exit

_ZSt6copy_nIPKljPlET1_T_T0_S3_.exit:              ; preds = %_ZSt8__copy_nIPKljPlET1_T_T0_S3_St26random_access_iterator_tag.exit.i, %29
  %51 = phi i32 [ %.pre, %_ZSt8__copy_nIPKljPlET1_T_T0_S3_St26random_access_iterator_tag.exit.i ], [ %30, %29 ]
  %indvars.iv.next = add nsw i64 %indvars.iv, 1
  %52 = sext i32 %51 to i64
  %.not.not = icmp slt i64 %indvars.iv, %52
  br i1 %.not.not, label %29, label %._crit_edge

._crit_edge:                                      ; preds = %_ZSt6copy_nIPKljPlET1_T_T0_S3_.exit, %19
  call void @__kmpc_for_static_fini(ptr nonnull @1, i32 %21)
  call void @llvm.lifetime.end.p0(i64 4, ptr nonnull %8) #6
  call void @llvm.lifetime.end.p0(i64 4, ptr nonnull %7) #6
  call void @llvm.lifetime.end.p0(i64 4, ptr nonnull %6) #6
  call void @llvm.lifetime.end.p0(i64 4, ptr nonnull %5) #6
  br label %53

53:                                               ; preds = %._crit_edge, %4
  ret void
}